(dp1
S'output'
p2
S"<type 'exceptions.UnboundLocalError'> local variable 'images' referenced before assignment"
p3
sS'layer'
p4
S'/home/raju/web2py/applications/slideshow/controllers/default.py'
p5
sS'code'
p6
S'# -*- coding: utf-8 -*-\n# this file is released under public domain and you can use without limitations\n\n#########################################################################\n## This is a sample controller\n## - index is the default action of any application\n## - user is required for authentication and authorization\n## - download is for downloading files uploaded in the db (does streaming)\n## - call exposes all registered services (none by default)\n#########################################################################\n\n\ndef index():\n    """\n    example action using the internationalization operator T and flash\n    rendered by views/default/index.html or views/generic.html\n\n    if you need a simple wiki simply replace the two lines below with:\n    return auth.wiki()\n    """\n    return dict(form=auth())\ndef first():\n    return dict()\ndef second():\n    return dict()\ndef user():\n    """\n    exposes:\n    http://..../[app]/default/user/login\n    http://..../[app]/default/user/logout\n    http://..../[app]/default/user/register\n    http://..../[app]/default/user/profile\n    http://..../[app]/default/user/retrieve_password\n    http://..../[app]/default/user/change_password\n    http://..../[app]/default/user/manage_users (requires membership in\n    use @auth.requires_login()\n        @auth.requires_membership(\'group name\')\n        @auth.requires_permission(\'read\',\'table name\',record_id)\n    to decorate functions that need access control\n    """\n    return dict(form=auth())\n\n@cache.action()\ndef download():\n    """\n    allows downloading of uploaded files\n    http://..../[app]/default/download/[filename]\n    """\n    return response.download(request, db)\n\n\ndef call():\n    """\n    exposes services. for example:\n    http://..../[app]/default/call/jsonrpc\n    decorate with @services.jsonrpc the functions to expose\n    supports xml, json, xmlrpc, jsonrpc, amfrpc, rss, csv\n    """\n    return service()\n\n\n@auth.requires_signature()\ndef data():\n    """\n    http://..../[app]/default/data/tables\n    http://..../[app]/default/data/create/[table]\n    http://..../[app]/default/data/read/[table]/[id]\n    http://..../[app]/default/data/update/[table]/[id]\n    http://..../[app]/default/data/delete/[table]/[id]\n    http://..../[app]/default/data/select/[table]\n    http://..../[app]/default/data/search/[table]\n    but URLs must be signed, i.e. linked with\n      A(\'table\',_href=URL(\'data/tables\',user_signature=True))\n    or with the signed load operator\n      LOAD(\'default\',\'data.load\',args=\'tables\',ajax=True,user_signature=True)\n    """\n    return dict(form=crud())\ndef download(): \n    return response.download(request,db)\ndef link():\n    return response.download(request,db,attachment=False)\n     \ndef show():\n    image_form = FORM(\n    INPUT(_name=\'image_title\',_type=\'text\'),\n    INPUT(_name=\'image_file\',_type=\'file\')\n    )\n    if image_form.accepts(request.vars,formname=\'image_form\'):\n        image = db.image.file.store(image_form.vars.image_file.file, image_form.vars.image_file.filename)\n        id = db.image.insert(file=image,title=image_form.vars.image_title)\n        images = db().select(db.image.ALL)\n    return dict(images=images)\n\nresponse._vars=response._caller(show)\n'
p7
sS'snapshot'
p8
(dp9
sS'traceback'
p10
S'Traceback (most recent call last):\n  File "/home/raju/web2py/gluon/restricted.py", line 220, in restricted\n    exec ccode in environment\n  File "/home/raju/web2py/applications/slideshow/controllers/default.py", line 94, in <module>\n  File "/home/raju/web2py/gluon/globals.py", line 385, in <lambda>\n    self._caller = lambda f: f()\n  File "/home/raju/web2py/applications/slideshow/controllers/default.py", line 92, in show\n    return dict(images=images)\nUnboundLocalError: local variable \'images\' referenced before assignment\n'
p11
s.